; Function Attrs: nounwind sspstrong uwtable
define internal zeroext i1 @virtio_pci_queue_enabled(ptr noundef %0, i32 noundef %1) #0 {
  %3 = tail call ptr @object_dynamic_cast_assert(ptr noundef %0, ptr noundef nonnull @.str, ptr noundef nonnull @.str.15, i32 noundef 107, ptr noundef nonnull @__func__.VIRTIO_PCI) #15
  %4 = getelementptr i8, ptr %3, i64 34160
  %.val = load ptr, ptr %4, align 8
  %.not.i = icmp eq ptr %.val, null
  br i1 %.not.i, label %virtio_bus_get_device.exit, label %5

5:                                                ; preds = %2
  %6 = getelementptr inbounds nuw i8, ptr %.val, i64 16
  %7 = load ptr, ptr %6, align 8
  br label %virtio_bus_get_device.exit

virtio_bus_get_device.exit:                       ; preds = %2, %5
  %8 = phi ptr [ %7, %5 ], [ null, %2 ]
  %9 = getelementptr i8, ptr %8, i64 176
  %.val7 = load i64, ptr %9, align 8
  %10 = and i64 %.val7, 4294967296
  %.not = icmp eq i64 %10, 0
  br i1 %.not, label %17, label %11

11:                                               ; preds = %virtio_bus_get_device.exit
  %12 = sext i32 %1 to i64
  %.idx = mul nsw i64 %12, 28
  %13 = getelementptr i8, ptr %3, i64 5390
  %14 = getelementptr i8, ptr %13, i64 %.idx
  %15 = load i8, ptr %14, align 2, !range !7, !noundef !6
  %16 = trunc nuw i8 %15 to i1
  br label %19

17:                                               ; preds = %virtio_bus_get_device.exit
  %18 = tail call zeroext i1 @virtio_queue_enabled_legacy(ptr noundef nonnull %8, i32 noundef %1) #15
  br label %19

19:                                               ; preds = %17, %11
  %.0 = phi i1 [ %16, %11 ], [ %18, %17 ]
  ret i1 %.0
}